target datalayout = "e-m:e-p270:32:32-p271:32:32-p272:64:64-i64:64-i128:128-f80:128-n8:16:32:64-S128"
target triple = "x86_64-pc-linux-gnu"

@hf_configuration_block_drive_power_struct_id = internal global i32 0, align 4
@ett_configuration_block = internal global i32 0, align 4
@.str.20 = private unnamed_addr constant [27 x i8] c"Motion Configuration Block\00", align 1
@hf_configuration_block_format_rev = internal global i32 0, align 4
@hf_connection_configuration_bits = internal global i32 0, align 4
@ett_connection_configuration_bits = internal global i32 0, align 4
@dissect_connection_configuration_bits.bits = internal constant [4 x ptr] [ptr @hf_connection_configuration_bits_power, ptr @hf_connection_configuration_bits_safety_bit_valid, ptr @hf_connection_configuration_bits_allow_network_safety, ptr null], align 16

; Function Attrs: nounwind uwtable
define internal i32 @dissect_connection_configuration_bits(ptr noundef %0, ptr noundef %1, ptr noundef %2, ptr noundef %3, i32 noundef %4, i32 noundef %5) #0 {
  %7 = alloca ptr, align 8
  %8 = alloca ptr, align 8
  %9 = alloca ptr, align 8
  %10 = alloca ptr, align 8
  %11 = alloca i32, align 4
  %12 = alloca i32, align 4
  store ptr %0, ptr %7, align 8
  store ptr %1, ptr %8, align 8
  store ptr %2, ptr %9, align 8
  store ptr %3, ptr %10, align 8
  store i32 %4, ptr %11, align 4
  store i32 %5, ptr %12, align 4
  %13 = load ptr, ptr %8, align 8
  %14 = load ptr, ptr %10, align 8
  %15 = load i32, ptr %11, align 4
  %16 = load i32, ptr @hf_connection_configuration_bits, align 4
  %17 = load i32, ptr @ett_connection_configuration_bits, align 4
  %18 = call ptr @proto_tree_add_bitmask(ptr noundef %13, ptr noundef %14, i32 noundef %15, i32 noundef %16, i32 noundef %17, ptr noundef @dissect_connection_configuration_bits.bits, i32 noundef -2147483648)
  ret i32 1
}

; Function Attrs: nounwind uwtable
define hidden i32 @dissect_motion_configuration_block(ptr noundef %0, ptr noundef %1, ptr noundef %2, ptr noundef %3, i32 noundef %4) #0 {
  %6 = alloca ptr, align 8
  %7 = alloca ptr, align 8
  %8 = alloca ptr, align 8
  %9 = alloca ptr, align 8
  %10 = alloca i32, align 4
  %11 = alloca ptr, align 8
  %12 = alloca ptr, align 8
  %13 = alloca i32, align 4
  store ptr %0, ptr %6, align 8
  store ptr %1, ptr %7, align 8
  store ptr %2, ptr %8, align 8
  store ptr %3, ptr %9, align 8
  store i32 %4, ptr %10, align 4
  %14 = load ptr, ptr %8, align 8
  %15 = load ptr, ptr %6, align 8
  %16 = load i32, ptr %10, align 4
  %17 = load i32, ptr @ett_configuration_block, align 4
  %18 = call ptr @proto_tree_add_subtree(ptr noundef %14, ptr noundef %15, i32 noundef %16, i32 noundef 0, i32 noundef %17, ptr noundef %11, ptr noundef @.str.20)
  store ptr %18, ptr %12, align 8
  %19 = load ptr, ptr %12, align 8
  %20 = load i32, ptr @hf_configuration_block_format_rev, align 4
  %21 = load ptr, ptr %6, align 8
  %22 = load i32, ptr %10, align 4
  %23 = call ptr @proto_tree_add_item(ptr noundef %19, i32 noundef %20, ptr noundef %21, i32 noundef %22, i32 noundef 1, i32 noundef -2147483648)
  store i32 1, ptr %13, align 4
  %24 = load ptr, ptr %7, align 8
  %25 = load ptr, ptr %12, align 8
  %26 = load ptr, ptr %9, align 8
  %27 = load ptr, ptr %6, align 8
  %28 = load i32, ptr %10, align 4
  %29 = load i32, ptr %13, align 4
  %30 = add i32 %28, %29
  %31 = call i32 @dissect_connection_configuration_bits(ptr noundef %24, ptr noundef %25, ptr noundef %26, ptr noundef %27, i32 noundef %30, i32 noundef 1)
  %32 = load i32, ptr %13, align 4
  %33 = add i32 %32, %31
  store i32 %33, ptr %13, align 4
  %34 = load i32, ptr %13, align 4
  %35 = add i32 %34, 2
  store i32 %35, ptr %13, align 4
  %36 = load ptr, ptr %12, align 8
  %37 = load i32, ptr @hf_configuration_block_drive_power_struct_id, align 4
  %38 = load ptr, ptr %6, align 8
  %39 = load i32, ptr %10, align 4
  %40 = load i32, ptr %13, align 4
  %41 = add i32 %39, %40
  %42 = call ptr @proto_tree_add_item(ptr noundef %36, i32 noundef %37, ptr noundef %38, i32 noundef %41, i32 noundef 4, i32 noundef -2147483648)
  %43 = load i32, ptr %13, align 4
  %44 = add i32 %43, 4
  store i32 %44, ptr %13, align 4
  %45 = load ptr, ptr %11, align 8
  %46 = load i32, ptr %13, align 4
  call void @proto_item_set_len(ptr noundef %45, i32 noundef %46)
  %47 = load i32, ptr %13, align 4
  ret i32 %47
}