; Function Attrs: nounwind uwtable
define hidden noundef i32 @dissect_motion_configuration_block(ptr noundef %0, ptr noundef readnone captures(none) %1, ptr noundef %2, ptr noundef readnone captures(none) %3, i32 noundef %4) local_unnamed_addr #0 {
  %6 = alloca ptr, align 8
  %7 = load i32, ptr @ett_configuration_block, align 4
  %8 = call ptr @proto_tree_add_subtree(ptr noundef %2, ptr noundef %0, i32 noundef %4, i32 noundef 0, i32 noundef %7, ptr noundef nonnull %6, ptr noundef nonnull @.str.20) #4
  %9 = load i32, ptr @hf_configuration_block_format_rev, align 4
  %10 = call ptr @proto_tree_add_item(ptr noundef %8, i32 noundef %9, ptr noundef %0, i32 noundef %4, i32 noundef 1, i32 noundef -2147483648) #4
  %11 = add i32 %4, 1
  %12 = load i32, ptr @hf_connection_configuration_bits, align 4
  %13 = load i32, ptr @ett_connection_configuration_bits, align 4
  %14 = call ptr @proto_tree_add_bitmask(ptr noundef %8, ptr noundef %0, i32 noundef %11, i32 noundef %12, i32 noundef %13, ptr noundef nonnull @dissect_connection_configuration_bits.bits, i32 noundef -2147483648) #4
  %15 = load i32, ptr @hf_configuration_block_drive_power_struct_id, align 4
  %16 = add i32 %4, 4
  %17 = call ptr @proto_tree_add_item(ptr noundef %8, i32 noundef %15, ptr noundef %0, i32 noundef %16, i32 noundef 4, i32 noundef -2147483648) #4
  %18 = load ptr, ptr %6, align 8
  call void @proto_item_set_len(ptr noundef %18, i32 noundef 8) #4
  ret i32 8
}